; Function Attrs: mustprogress uwtable
define noundef ptr @_ZN6icu_758TimeZone18forLocaleOrDefaultERKNS_6LocaleE(ptr noundef nonnull align 8 dereferenceable(217) %locale) local_unnamed_addr #0 align 2 personality ptr @__gxx_personality_v0 {
entry:
  %ec.i.i = alloca i32, align 4
  %buffer = alloca [96 x i8], align 16
  %localStatus = alloca i32, align 4
  %ref.tmp = alloca %"class.icu_75::UnicodeString", align 8
  call void @llvm.memset.p0.i64(ptr noundef nonnull align 16 dereferenceable(96) %buffer, i8 0, i64 96, i1 false)
  store i32 0, ptr %localStatus, align 4
  %call = call noundef i32 @_ZNK6icu_756Locale15getKeywordValueEPKcPciR10UErrorCode(ptr noundef nonnull align 8 dereferenceable(217) %locale, ptr noundef nonnull @.str.1, ptr noundef nonnull %buffer, i32 noundef 96, ptr noundef nonnull align 4 dereferenceable(4) %localStatus)
  %0 = load i32, ptr %localStatus, align 4
  %cmp.i = icmp sgt i32 %0, 0
  %cmp = icmp eq i32 %0, -124
  %or.cond = or i1 %cmp.i, %cmp
  %spec.select = select i1 %or.cond, i32 0, i32 %call
  %cmp2 = icmp sgt i32 %spec.select, 0
  br i1 %cmp2, label %if.then3, label %if.end6

if.then3:                                         ; preds = %entry
  call void @_ZN6icu_7513UnicodeStringC1EPKciNS0_10EInvariantE(ptr noundef nonnull align 8 dereferenceable(64) %ref.tmp, ptr noundef nonnull %buffer, i32 noundef %spec.select, i32 noundef 0)
  call void @llvm.lifetime.start.p0(i64 4, ptr nonnull %ec.i.i)
  store i32 0, ptr %ec.i.i, align 4
  %call.i.i3 = invoke fastcc noundef ptr @_ZN6icu_7512_GLOBAL__N_120createSystemTimeZoneERKNS_13UnicodeStringER10UErrorCode(ptr noundef nonnull align 8 dereferenceable(64) %ref.tmp, ptr noundef nonnull align 4 dereferenceable(4) %ec.i.i)
          to label %call.i.i.noexc unwind label %lpad

call.i.i.noexc:                                   ; preds = %if.then3
  call void @llvm.lifetime.end.p0(i64 4, ptr nonnull %ec.i.i)
  %cmp.i2 = icmp eq ptr %call.i.i3, null
  br i1 %cmp.i2, label %if.end.i, label %invoke.cont

if.end.i:                                         ; preds = %call.i.i.noexc
  %call1.i4 = invoke noundef ptr @_ZN6icu_758TimeZone20createCustomTimeZoneERKNS_13UnicodeStringE(ptr noundef nonnull align 8 dereferenceable(64) %ref.tmp)
          to label %call1.i.noexc unwind label %lpad

call1.i.noexc:                                    ; preds = %if.end.i
  %cmp2.i = icmp eq ptr %call1.i4, null
  br i1 %cmp2.i, label %if.then3.i, label %invoke.cont

if.then3.i:                                       ; preds = %call1.i.noexc
  %1 = load atomic i32, ptr @_ZL20gStaticZonesInitOnce acquire, align 4
  %cmp.i.i.i = icmp eq i32 %1, 2
  br i1 %cmp.i.i.i, label %_ZN6icu_758TimeZone10getUnknownEv.exit.i, label %if.end.i.i.i

if.end.i.i.i:                                     ; preds = %if.then3.i
  %call1.i.i.i5 = invoke noundef signext i8 @_ZN6icu_7520umtx_initImplPreInitERNS_9UInitOnceE(ptr noundef nonnull align 4 dereferenceable(8) @_ZL20gStaticZonesInitOnce)
          to label %call1.i.i.i.noexc unwind label %lpad

call1.i.i.i.noexc:                                ; preds = %if.end.i.i.i
  %tobool.not.i.i.i = icmp eq i8 %call1.i.i.i5, 0
  br i1 %tobool.not.i.i.i, label %_ZN6icu_758TimeZone10getUnknownEv.exit.i, label %if.then2.i.i.i

if.then2.i.i.i:                                   ; preds = %call1.i.i.i.noexc
  invoke fastcc void @_ZN6icu_7512_GLOBAL__N_119initStaticTimeZonesEv()
          to label %.noexc unwind label %lpad

.noexc:                                           ; preds = %if.then2.i.i.i
  invoke void @_ZN6icu_7521umtx_initImplPostInitERNS_9UInitOnceE(ptr noundef nonnull align 4 dereferenceable(8) @_ZL20gStaticZonesInitOnce)
          to label %_ZN6icu_758TimeZone10getUnknownEv.exit.i unwind label %lpad

_ZN6icu_758TimeZone10getUnknownEv.exit.i:         ; preds = %.noexc, %call1.i.i.i.noexc, %if.then3.i
  %vtable.i = load ptr, ptr @_ZL11gRawUNKNOWN, align 8
  %vfn.i = getelementptr inbounds i8, ptr %vtable.i, i64 96
  %2 = load ptr, ptr %vfn.i, align 8
  %call5.i7 = invoke noundef ptr %2(ptr noundef nonnull align 8 dereferenceable(72) @_ZL11gRawUNKNOWN)
          to label %invoke.cont unwind label %lpad

invoke.cont:                                      ; preds = %call1.i.noexc, %call.i.i.noexc, %_ZN6icu_758TimeZone10getUnknownEv.exit.i
  %result.1.i = phi ptr [ %call1.i4, %call1.i.noexc ], [ %call.i.i3, %call.i.i.noexc ], [ %call5.i7, %_ZN6icu_758TimeZone10getUnknownEv.exit.i ]
  call void @_ZN6icu_7513UnicodeStringD1Ev(ptr noundef nonnull align 8 dereferenceable(64) %ref.tmp) #18
  br label %return

lpad:                                             ; preds = %_ZN6icu_758TimeZone10getUnknownEv.exit.i, %.noexc, %if.then2.i.i.i, %if.end.i.i.i, %if.end.i, %if.then3
  %3 = landingpad { ptr, i32 }
          cleanup
  call void @_ZN6icu_7513UnicodeStringD1Ev(ptr noundef nonnull align 8 dereferenceable(64) %ref.tmp) #18
  resume { ptr, i32 } %3

if.end6:                                          ; preds = %entry
  %call7 = call noundef ptr @_ZN6icu_758TimeZone13createDefaultEv()
  br label %return

return:                                           ; preds = %if.end6, %invoke.cont
  %retval.0 = phi ptr [ %result.1.i, %invoke.cont ], [ %call7, %if.end6 ]
  ret ptr %retval.0
}